target datalayout = "e-m:e-p270:32:32-p271:32:32-p272:64:64-i64:64-i128:128-f80:128-n8:16:32:64-S128"
target triple = "x86_64-unknown-linux-gnu"

%"class.std::__cxx11::basic_string" = type { %"struct.std::__cxx11::basic_string<char>::_Alloc_hider", i64, %union.anon }
%"struct.std::__cxx11::basic_string<char>::_Alloc_hider" = type { ptr }
%union.anon = type { i64, [8 x i8] }
%"class.std::basic_string_view" = type { i64, ptr }

@.str.90 = private unnamed_addr constant [17 x i8] c"0123456789ABCDEF\00", align 1

; Function Attrs: mustprogress nounwind uwtable
define linkonce_odr noundef ptr @_ZNKSt17basic_string_viewIcSt11char_traitsIcEE3endEv(ptr noundef nonnull align 8 dereferenceable(16) %this) #6 comdat align 2 {
entry:
  %this.addr = alloca ptr, align 8
  store ptr %this, ptr %this.addr, align 8
  %this1 = load ptr, ptr %this.addr, align 8
  %_M_str = getelementptr inbounds %"class.std::basic_string_view", ptr %this1, i32 0, i32 1
  %0 = load ptr, ptr %_M_str, align 8
  %_M_len = getelementptr inbounds %"class.std::basic_string_view", ptr %this1, i32 0, i32 0
  %1 = load i64, ptr %_M_len, align 8
  %add.ptr = getelementptr inbounds i8, ptr %0, i64 %1
  ret ptr %add.ptr
}

; Function Attrs: mustprogress nounwind uwtable
define linkonce_odr noundef ptr @_ZNKSt17basic_string_viewIcSt11char_traitsIcEE5beginEv(ptr noundef nonnull align 8 dereferenceable(16) %this) #6 comdat align 2 {
entry:
  %this.addr = alloca ptr, align 8
  store ptr %this, ptr %this.addr, align 8
  %this1 = load ptr, ptr %this.addr, align 8
  %_M_str = getelementptr inbounds %"class.std::basic_string_view", ptr %this1, i32 0, i32 1
  %0 = load ptr, ptr %_M_str, align 8
  ret ptr %0
}

; Function Attrs: mustprogress nounwind uwtable
define linkonce_odr noundef i64 @_ZNKSt17basic_string_viewIcSt11char_traitsIcEE6lengthEv(ptr noundef nonnull align 8 dereferenceable(16) %this) #6 comdat align 2 {
entry:
  %this.addr = alloca ptr, align 8
  store ptr %this, ptr %this.addr, align 8
  %this1 = load ptr, ptr %this.addr, align 8
  %_M_len = getelementptr inbounds %"class.std::basic_string_view", ptr %this1, i32 0, i32 0
  %0 = load i64, ptr %_M_len, align 8
  ret i64 %0
}

; Function Attrs: mustprogress uwtable
define internal void @_ZN9grpc_core12_GLOBAL__N_19UrlEncodeB5cxx11ERKSt17basic_string_viewIcSt11char_traitsIcEE(ptr noalias sret(%"class.std::__cxx11::basic_string") align 8 %agg.result, ptr noundef nonnull align 8 dereferenceable(16) %s) #4 personality ptr @__gxx_personality_v0 {
entry:
  %result.ptr = alloca ptr, align 8
  %s.addr = alloca ptr, align 8
  %hex = alloca ptr, align 8
  %nrvo = alloca i1, align 1
  %exn.slot = alloca ptr, align 8
  %ehselector.slot = alloca i32, align 4
  %__range2 = alloca ptr, align 8
  %__begin2 = alloca ptr, align 8
  %__end2 = alloca ptr, align 8
  %c = alloca i8, align 1
  store ptr %agg.result, ptr %result.ptr, align 8
  store ptr %s, ptr %s.addr, align 8
  store ptr @.str.90, ptr %hex, align 8
  store i1 false, ptr %nrvo, align 1
  call void @_ZNSt7__cxx1112basic_stringIcSt11char_traitsIcESaIcEEC1Ev(ptr noundef nonnull align 8 dereferenceable(32) %agg.result) #3
  %0 = load ptr, ptr %s.addr, align 8
  %call = call noundef i64 @_ZNKSt17basic_string_viewIcSt11char_traitsIcEE6lengthEv(ptr noundef nonnull align 8 dereferenceable(16) %0) #3
  invoke void @_ZNSt7__cxx1112basic_stringIcSt11char_traitsIcESaIcEE7reserveEm(ptr noundef nonnull align 8 dereferenceable(32) %agg.result, i64 noundef %call)
          to label %invoke.cont unwind label %lpad

invoke.cont:                                      ; preds = %entry
  %1 = load ptr, ptr %s.addr, align 8
  store ptr %1, ptr %__range2, align 8
  %2 = load ptr, ptr %__range2, align 8
  %call1 = call noundef ptr @_ZNKSt17basic_string_viewIcSt11char_traitsIcEE5beginEv(ptr noundef nonnull align 8 dereferenceable(16) %2) #3
  store ptr %call1, ptr %__begin2, align 8
  %3 = load ptr, ptr %__range2, align 8
  %call2 = call noundef ptr @_ZNKSt17basic_string_viewIcSt11char_traitsIcEE3endEv(ptr noundef nonnull align 8 dereferenceable(16) %3) #3
  store ptr %call2, ptr %__end2, align 8
  br label %for.cond

for.cond:                                         ; preds = %for.inc, %invoke.cont
  %4 = load ptr, ptr %__begin2, align 8
  %5 = load ptr, ptr %__end2, align 8
  %cmp = icmp ne ptr %4, %5
  br i1 %cmp, label %for.body, label %for.end

for.body:                                         ; preds = %for.cond
  %6 = load ptr, ptr %__begin2, align 8
  %7 = load i8, ptr %6, align 1
  store i8 %7, ptr %c, align 1
  %8 = load i8, ptr %c, align 1
  %conv = sext i8 %8 to i32
  %cmp3 = icmp sge i32 %conv, 48
  br i1 %cmp3, label %land.lhs.true, label %lor.lhs.false

land.lhs.true:                                    ; preds = %for.body
  %9 = load i8, ptr %c, align 1
  %conv4 = sext i8 %9 to i32
  %cmp5 = icmp sle i32 %conv4, 57
  br i1 %cmp5, label %if.then, label %lor.lhs.false

lor.lhs.false:                                    ; preds = %land.lhs.true, %for.body
  %10 = load i8, ptr %c, align 1
  %conv6 = sext i8 %10 to i32
  %cmp7 = icmp sge i32 %conv6, 65
  br i1 %cmp7, label %land.lhs.true8, label %lor.lhs.false11

land.lhs.true8:                                   ; preds = %lor.lhs.false
  %11 = load i8, ptr %c, align 1
  %conv9 = sext i8 %11 to i32
  %cmp10 = icmp sle i32 %conv9, 90
  br i1 %cmp10, label %if.then, label %lor.lhs.false11

lor.lhs.false11:                                  ; preds = %land.lhs.true8, %lor.lhs.false
  %12 = load i8, ptr %c, align 1
  %conv12 = sext i8 %12 to i32
  %cmp13 = icmp sge i32 %conv12, 97
  br i1 %cmp13, label %land.lhs.true14, label %lor.lhs.false17

land.lhs.true14:                                  ; preds = %lor.lhs.false11
  %13 = load i8, ptr %c, align 1
  %conv15 = sext i8 %13 to i32
  %cmp16 = icmp sle i32 %conv15, 122
  br i1 %cmp16, label %if.then, label %lor.lhs.false17

lor.lhs.false17:                                  ; preds = %land.lhs.true14, %lor.lhs.false11
  %14 = load i8, ptr %c, align 1
  %conv18 = sext i8 %14 to i32
  %cmp19 = icmp eq i32 %conv18, 45
  br i1 %cmp19, label %if.then, label %lor.lhs.false20

lor.lhs.false20:                                  ; preds = %lor.lhs.false17
  %15 = load i8, ptr %c, align 1
  %conv21 = sext i8 %15 to i32
  %cmp22 = icmp eq i32 %conv21, 95
  br i1 %cmp22, label %if.then, label %lor.lhs.false23

lor.lhs.false23:                                  ; preds = %lor.lhs.false20
  %16 = load i8, ptr %c, align 1
  %conv24 = sext i8 %16 to i32
  %cmp25 = icmp eq i32 %conv24, 33
  br i1 %cmp25, label %if.then, label %lor.lhs.false26

lor.lhs.false26:                                  ; preds = %lor.lhs.false23
  %17 = load i8, ptr %c, align 1
  %conv27 = sext i8 %17 to i32
  %cmp28 = icmp eq i32 %conv27, 39
  br i1 %cmp28, label %if.then, label %lor.lhs.false29

lor.lhs.false29:                                  ; preds = %lor.lhs.false26
  %18 = load i8, ptr %c, align 1
  %conv30 = sext i8 %18 to i32
  %cmp31 = icmp eq i32 %conv30, 40
  br i1 %cmp31, label %if.then, label %lor.lhs.false32

lor.lhs.false32:                                  ; preds = %lor.lhs.false29
  %19 = load i8, ptr %c, align 1
  %conv33 = sext i8 %19 to i32
  %cmp34 = icmp eq i32 %conv33, 41
  br i1 %cmp34, label %if.then, label %lor.lhs.false35

lor.lhs.false35:                                  ; preds = %lor.lhs.false32
  %20 = load i8, ptr %c, align 1
  %conv36 = sext i8 %20 to i32
  %cmp37 = icmp eq i32 %conv36, 42
  br i1 %cmp37, label %if.then, label %lor.lhs.false38

lor.lhs.false38:                                  ; preds = %lor.lhs.false35
  %21 = load i8, ptr %c, align 1
  %conv39 = sext i8 %21 to i32
  %cmp40 = icmp eq i32 %conv39, 126
  br i1 %cmp40, label %if.then, label %lor.lhs.false41

lor.lhs.false41:                                  ; preds = %lor.lhs.false38
  %22 = load i8, ptr %c, align 1
  %conv42 = sext i8 %22 to i32
  %cmp43 = icmp eq i32 %conv42, 46
  br i1 %cmp43, label %if.then, label %if.else

if.then:                                          ; preds = %lor.lhs.false41, %lor.lhs.false38, %lor.lhs.false35, %lor.lhs.false32, %lor.lhs.false29, %lor.lhs.false26, %lor.lhs.false23, %lor.lhs.false20, %lor.lhs.false17, %land.lhs.true14, %land.lhs.true8, %land.lhs.true
  %23 = load i8, ptr %c, align 1
  invoke void @_ZNSt7__cxx1112basic_stringIcSt11char_traitsIcESaIcEE9push_backEc(ptr noundef nonnull align 8 dereferenceable(32) %agg.result, i8 noundef signext %23)
          to label %invoke.cont44 unwind label %lpad

invoke.cont44:                                    ; preds = %if.then
  br label %if.end

lpad:                                             ; preds = %invoke.cont47, %invoke.cont45, %if.else, %if.then, %entry
  %24 = landingpad { ptr, i32 }
          cleanup
  %25 = extractvalue { ptr, i32 } %24, 0
  store ptr %25, ptr %exn.slot, align 8
  %26 = extractvalue { ptr, i32 } %24, 1
  store i32 %26, ptr %ehselector.slot, align 4
  call void @_ZNSt7__cxx1112basic_stringIcSt11char_traitsIcESaIcEED1Ev(ptr noundef nonnull align 8 dereferenceable(32) %agg.result) #3
  br label %eh.resume

if.else:                                          ; preds = %lor.lhs.false41
  invoke void @_ZNSt7__cxx1112basic_stringIcSt11char_traitsIcESaIcEE9push_backEc(ptr noundef nonnull align 8 dereferenceable(32) %agg.result, i8 noundef signext 37)
          to label %invoke.cont45 unwind label %lpad

invoke.cont45:                                    ; preds = %if.else
  %27 = load ptr, ptr %hex, align 8
  %28 = load i8, ptr %c, align 1
  %conv46 = zext i8 %28 to i32
  %shr = ashr i32 %conv46, 4
  %idxprom = sext i32 %shr to i64
  %arrayidx = getelementptr inbounds i8, ptr %27, i64 %idxprom
  %29 = load i8, ptr %arrayidx, align 1
  invoke void @_ZNSt7__cxx1112basic_stringIcSt11char_traitsIcESaIcEE9push_backEc(ptr noundef nonnull align 8 dereferenceable(32) %agg.result, i8 noundef signext %29)
          to label %invoke.cont47 unwind label %lpad

invoke.cont47:                                    ; preds = %invoke.cont45
  %30 = load ptr, ptr %hex, align 8
  %31 = load i8, ptr %c, align 1
  %conv48 = zext i8 %31 to i32
  %and = and i32 %conv48, 15
  %idxprom49 = sext i32 %and to i64
  %arrayidx50 = getelementptr inbounds i8, ptr %30, i64 %idxprom49
  %32 = load i8, ptr %arrayidx50, align 1
  invoke void @_ZNSt7__cxx1112basic_stringIcSt11char_traitsIcESaIcEE9push_backEc(ptr noundef nonnull align 8 dereferenceable(32) %agg.result, i8 noundef signext %32)
          to label %invoke.cont51 unwind label %lpad

invoke.cont51:                                    ; preds = %invoke.cont47
  br label %if.end

if.end:                                           ; preds = %invoke.cont51, %invoke.cont44
  br label %for.inc

for.inc:                                          ; preds = %if.end
  %33 = load ptr, ptr %__begin2, align 8
  %incdec.ptr = getelementptr inbounds i8, ptr %33, i32 1
  store ptr %incdec.ptr, ptr %__begin2, align 8
  br label %for.cond

for.end:                                          ; preds = %for.cond
  store i1 true, ptr %nrvo, align 1
  %nrvo.val = load i1, ptr %nrvo, align 1
  br i1 %nrvo.val, label %nrvo.skipdtor, label %nrvo.unused

nrvo.unused:                                      ; preds = %for.end
  call void @_ZNSt7__cxx1112basic_stringIcSt11char_traitsIcESaIcEED1Ev(ptr noundef nonnull align 8 dereferenceable(32) %agg.result) #3
  br label %nrvo.skipdtor

nrvo.skipdtor:                                    ; preds = %nrvo.unused, %for.end
  ret void

eh.resume:                                        ; preds = %lpad
  %exn = load ptr, ptr %exn.slot, align 8
  %sel = load i32, ptr %ehselector.slot, align 4
  %lpad.val = insertvalue { ptr, i32 } poison, ptr %exn, 0
  %lpad.val52 = insertvalue { ptr, i32 } %lpad.val, i32 %sel, 1
  resume { ptr, i32 } %lpad.val52
}