; Function Attrs: mustprogress uwtable
define internal fastcc void @_ZN9grpc_core12_GLOBAL__N_19UrlEncodeB5cxx11ERKSt17basic_string_viewIcSt11char_traitsIcEE(ptr noalias nonnull align 8 %agg.result, ptr nocapture noundef nonnull readonly align 8 dereferenceable(16) %s) unnamed_addr #3 personality ptr @__gxx_personality_v0 {
entry:
  tail call void @_ZNSt7__cxx1112basic_stringIcSt11char_traitsIcESaIcEEC1Ev(ptr noundef nonnull align 8 dereferenceable(32) %agg.result) #24
  %0 = load i64, ptr %s, align 8
  invoke void @_ZNSt7__cxx1112basic_stringIcSt11char_traitsIcESaIcEE7reserveEm(ptr noundef nonnull align 8 dereferenceable(32) %agg.result, i64 noundef %0)
          to label %invoke.cont unwind label %lpad.loopexit.split-lp

invoke.cont:                                      ; preds = %entry
  %_M_str.i = getelementptr inbounds i8, ptr %s, i64 8
  %1 = load ptr, ptr %_M_str.i, align 8
  %2 = load i64, ptr %s, align 8
  %add.ptr.i = getelementptr inbounds i8, ptr %1, i64 %2
  %cmp.not40 = icmp eq i64 %2, 0
  br i1 %cmp.not40, label %nrvo.skipdtor, label %for.body

for.body:                                         ; preds = %invoke.cont, %for.inc
  %__begin2.041 = phi ptr [ %incdec.ptr, %for.inc ], [ %1, %invoke.cont ]
  %3 = load i8, ptr %__begin2.041, align 1
  %.fr36 = freeze i8 %3
  %4 = add i8 %.fr36, -48
  %or.cond = icmp ult i8 %4, 10
  %5 = and i8 %.fr36, -33
  %6 = add i8 %5, -65
  %7 = icmp ult i8 %6, 26
  %or.cond37 = or i1 %or.cond, %7
  br i1 %or.cond37, label %if.then.invoke, label %switch.early.test

switch.early.test:                                ; preds = %for.body
  switch i8 %.fr36, label %if.else [
    i8 126, label %if.then.invoke
    i8 95, label %if.then.invoke
    i8 46, label %if.then.invoke
    i8 45, label %if.then.invoke
    i8 42, label %if.then.invoke
    i8 41, label %if.then.invoke
    i8 40, label %if.then.invoke
    i8 39, label %if.then.invoke
    i8 33, label %if.then.invoke
  ]

if.then.invoke:                                   ; preds = %for.body, %switch.early.test, %switch.early.test, %switch.early.test, %switch.early.test, %switch.early.test, %switch.early.test, %switch.early.test, %switch.early.test, %switch.early.test, %invoke.cont47
  %8 = phi i8 [ %10, %invoke.cont47 ], [ %.fr36, %switch.early.test ], [ %.fr36, %switch.early.test ], [ %.fr36, %switch.early.test ], [ %.fr36, %switch.early.test ], [ %.fr36, %switch.early.test ], [ %.fr36, %switch.early.test ], [ %.fr36, %switch.early.test ], [ %.fr36, %switch.early.test ], [ %.fr36, %switch.early.test ], [ %.fr36, %for.body ]
  invoke void @_ZNSt7__cxx1112basic_stringIcSt11char_traitsIcESaIcEE9push_backEc(ptr noundef nonnull align 8 dereferenceable(32) %agg.result, i8 noundef signext %8)
          to label %for.inc unwind label %lpad.loopexit

lpad.loopexit:                                    ; preds = %if.then.invoke, %if.else, %invoke.cont45
  %lpad.loopexit38 = landingpad { ptr, i32 }
          cleanup
  br label %lpad

lpad.loopexit.split-lp:                           ; preds = %entry
  %lpad.loopexit.split-lp39 = landingpad { ptr, i32 }
          cleanup
  br label %lpad

lpad:                                             ; preds = %lpad.loopexit.split-lp, %lpad.loopexit
  %lpad.phi = phi { ptr, i32 } [ %lpad.loopexit38, %lpad.loopexit ], [ %lpad.loopexit.split-lp39, %lpad.loopexit.split-lp ]
  tail call void @_ZNSt7__cxx1112basic_stringIcSt11char_traitsIcESaIcEED1Ev(ptr noundef nonnull align 8 dereferenceable(32) %agg.result) #24
  resume { ptr, i32 } %lpad.phi

if.else:                                          ; preds = %switch.early.test
  invoke void @_ZNSt7__cxx1112basic_stringIcSt11char_traitsIcESaIcEE9push_backEc(ptr noundef nonnull align 8 dereferenceable(32) %agg.result, i8 noundef signext 37)
          to label %invoke.cont45 unwind label %lpad.loopexit

invoke.cont45:                                    ; preds = %if.else
  %conv46 = zext i8 %.fr36 to i32
  %shr = lshr i32 %conv46, 4
  %idxprom = zext nneg i32 %shr to i64
  %arrayidx = getelementptr inbounds i8, ptr @.str.90, i64 %idxprom
  %9 = load i8, ptr %arrayidx, align 1
  invoke void @_ZNSt7__cxx1112basic_stringIcSt11char_traitsIcESaIcEE9push_backEc(ptr noundef nonnull align 8 dereferenceable(32) %agg.result, i8 noundef signext %9)
          to label %invoke.cont47 unwind label %lpad.loopexit

invoke.cont47:                                    ; preds = %invoke.cont45
  %and = and i32 %conv46, 15
  %idxprom49 = zext nneg i32 %and to i64
  %arrayidx50 = getelementptr inbounds i8, ptr @.str.90, i64 %idxprom49
  %10 = load i8, ptr %arrayidx50, align 1
  br label %if.then.invoke

for.inc:                                          ; preds = %if.then.invoke
  %incdec.ptr = getelementptr inbounds i8, ptr %__begin2.041, i64 1
  %cmp.not = icmp eq ptr %incdec.ptr, %add.ptr.i
  br i1 %cmp.not, label %nrvo.skipdtor, label %for.body

nrvo.skipdtor:                                    ; preds = %for.inc, %invoke.cont
  ret void
}